target datalayout = "e-m:e-p270:32:32-p271:32:32-p272:64:64-i64:64-i128:128-f80:128-n8:16:32:64-S128"
target triple = "x86_64-pc-linux-gnu"

%struct.lv_area_t = type { i32, i32, i32, i32 }
%struct.lv_color_t = type { i8, i8, i8 }
%struct._lv_draw_image_dsc_t = type { %struct.lv_draw_dsc_base_t, ptr, %struct.lv_image_header_t, i32, i32, i32, i32, i32, %struct.lv_point_t, %struct.lv_color_t, i8, i8, i8, ptr, %struct.lv_area_t, i32, ptr }
%struct.lv_draw_dsc_base_t = type { ptr, i32, i32, i32, ptr, i64, ptr }
%struct.lv_image_header_t = type <{ i64, i32 }>
%struct.lv_point_t = type { i32, i32 }

; Function Attrs: inlinehint nounwind uwtable
define internal void @lv_memzero(ptr noundef %0, i64 noundef %1) #1 {
  %3 = alloca ptr, align 8
  %4 = alloca i64, align 8
  store ptr %0, ptr %3, align 8, !tbaa !3
  store i64 %1, ptr %4, align 8, !tbaa !23
  %5 = load ptr, ptr %3, align 8, !tbaa !3
  %6 = load i64, ptr %4, align 8, !tbaa !23
  call void @lv_memset(ptr noundef %5, i8 noundef zeroext 0, i64 noundef %6)
  ret void
}

; Function Attrs: nounwind uwtable
define void @lv_draw_image_dsc_init(ptr noundef %0) #0 {
  %2 = alloca ptr, align 8
  %3 = alloca %struct.lv_color_t, align 1
  store ptr %0, ptr %2, align 8, !tbaa !3
  %4 = load ptr, ptr %2, align 8, !tbaa !3
  call void @lv_memzero(ptr noundef %4, i64 noundef 144)
  %5 = load ptr, ptr %2, align 8, !tbaa !3
  %6 = getelementptr inbounds nuw %struct._lv_draw_image_dsc_t, ptr %5, i32 0, i32 9
  call void @llvm.lifetime.start.p0(i64 3, ptr %3) #5
  %7 = call i24 @lv_color_black()
  store i24 %7, ptr %3, align 1
  call void @llvm.memcpy.p0.p0.i64(ptr align 8 %6, ptr align 1 %3, i64 3, i1 false), !tbaa.struct !7
  call void @llvm.lifetime.end.p0(i64 3, ptr %3) #5
  %8 = load ptr, ptr %2, align 8, !tbaa !3
  %9 = getelementptr inbounds nuw %struct._lv_draw_image_dsc_t, ptr %8, i32 0, i32 11
  store i8 -1, ptr %9, align 4, !tbaa !9
  %10 = load ptr, ptr %2, align 8, !tbaa !3
  %11 = getelementptr inbounds nuw %struct._lv_draw_image_dsc_t, ptr %10, i32 0, i32 4
  store i32 256, ptr %11, align 8, !tbaa !19
  %12 = load ptr, ptr %2, align 8, !tbaa !3
  %13 = getelementptr inbounds nuw %struct._lv_draw_image_dsc_t, ptr %12, i32 0, i32 5
  store i32 256, ptr %13, align 4, !tbaa !20
  %14 = load ptr, ptr %2, align 8, !tbaa !3
  %15 = getelementptr inbounds nuw %struct._lv_draw_image_dsc_t, ptr %14, i32 0, i32 12
  %16 = load i8, ptr %15, align 1
  %17 = and i8 %16, -17
  %18 = or i8 %17, 16
  store i8 %18, ptr %15, align 1
  %19 = load ptr, ptr %2, align 8, !tbaa !3
  %20 = getelementptr inbounds nuw %struct._lv_draw_image_dsc_t, ptr %19, i32 0, i32 14
  %21 = getelementptr inbounds nuw %struct.lv_area_t, ptr %20, i32 0, i32 2
  store i32 -536870911, ptr %21, align 8, !tbaa !21
  %22 = load ptr, ptr %2, align 8, !tbaa !3
  %23 = getelementptr inbounds nuw %struct._lv_draw_image_dsc_t, ptr %22, i32 0, i32 0
  %24 = getelementptr inbounds nuw %struct.lv_draw_dsc_base_t, ptr %23, i32 0, i32 5
  store i64 144, ptr %24, align 8, !tbaa !22
  ret void
}