; Function Attrs: nounwind uwtable
define void @lv_draw_image_dsc_init(ptr noundef %0) local_unnamed_addr #0 {
  tail call void @lv_memset(ptr noundef %0, i8 noundef zeroext 0, i64 noundef 144) #6
  %2 = getelementptr inbounds nuw i8, ptr %0, i64 96
  %3 = tail call i24 @lv_color_black() #6
  store i24 %3, ptr %2, align 8
  %4 = getelementptr inbounds nuw i8, ptr %0, i64 100
  store i8 -1, ptr %4, align 4, !tbaa !3
  %5 = getelementptr inbounds nuw i8, ptr %0, i64 72
  store i32 256, ptr %5, align 8, !tbaa !16
  %6 = getelementptr inbounds nuw i8, ptr %0, i64 76
  store i32 256, ptr %6, align 4, !tbaa !17
  %7 = getelementptr inbounds nuw i8, ptr %0, i64 101
  %8 = load i8, ptr %7, align 1
  %9 = or i8 %8, 16
  store i8 %9, ptr %7, align 1
  %10 = getelementptr inbounds nuw i8, ptr %0, i64 120
  store i32 -536870911, ptr %10, align 8, !tbaa !18
  %11 = getelementptr inbounds nuw i8, ptr %0, i64 32
  store i64 144, ptr %11, align 8, !tbaa !19
  ret void
}